; Function Attrs: mustprogress noreturn uwtable
define internal void @_ZN3pro7details26invocation_dispatcher_voidIN12_GLOBAL__N_14spec6WeakAt4__FVENSt7__cxx1112basic_stringIcSt11char_traitsIcESaIcEEEJiEEET0_PKSt4byteDpT1_(ptr dead_on_unwind noalias nocapture readnone sret(%"class.std::__cxx11::basic_string") align 8 %0, ptr nocapture readnone %1, i32 %2) #15 personality ptr @__gxx_personality_v0 {
  %4 = tail call ptr @__cxa_allocate_exception(i64 16) #25
  invoke void @_ZNSt13runtime_errorC1EPKc(ptr noundef nonnull align 8 dereferenceable(16) %4, ptr noundef nonnull @.str.61)
          to label %5 unwind label %6

5:                                                ; preds = %3
  tail call void @__cxa_throw(ptr nonnull %4, ptr nonnull @_ZTISt13runtime_error, ptr nonnull @_ZNSt13runtime_errorD1Ev) #26
  unreachable

6:                                                ; preds = %3
  %7 = landingpad { ptr, i32 }
          cleanup
  tail call void @__cxa_free_exception(ptr %4) #25
  resume { ptr, i32 } %7
}